target datalayout = "e-m:e-p270:32:32-p271:32:32-p272:64:64-i64:64-i128:128-f80:128-n8:16:32:64-S128"
target triple = "x86_64-pc-linux-gnu"

%struct.expert_field = type { i32, i32 }
%struct.pdcp_nr_info = type { i8, i16, i32, i8, i32, i8, i8, i8, i8, %struct.rohc_info, i8, i16 }
%struct.rohc_info = type { i8, i8, i8, i8, i32, i8, i8, i16, ptr }

@proto_pdcp_nr = hidden global i32 0, align 4
@ei_pdcp_nr_unknown_udp_framing_tag = internal global %struct.expert_field zeroinitializer, align 4
@ei_pdcp_nr_missing_udp_framing_tag = internal global %struct.expert_field zeroinitializer, align 4
@.str.189 = private unnamed_addr constant [8 x i8] c"pdcp-nr\00", align 1

; Function Attrs: null_pointer_is_valid sspstrong uwtable
define internal zeroext i1 @dissect_pdcp_nr_heur(ptr noundef %0, ptr noundef %1, ptr noundef %2, ptr noundef %3) #0 {
  %5 = alloca i1, align 1
  %6 = alloca ptr, align 8
  %7 = alloca ptr, align 8
  %8 = alloca ptr, align 8
  %9 = alloca ptr, align 8
  %10 = alloca i32, align 4
  %11 = alloca ptr, align 8
  %12 = alloca ptr, align 8
  %13 = alloca i8, align 1
  %14 = alloca i8, align 1
  %15 = alloca i32, align 4
  %16 = alloca i32, align 4
  store ptr %0, ptr %6, align 8
  store ptr %1, ptr %7, align 8
  store ptr %2, ptr %8, align 8
  store ptr %3, ptr %9, align 8
  call void @llvm.lifetime.start.p0(i64 4, ptr %10) #15
  store i32 0, ptr %10, align 4
  call void @llvm.lifetime.start.p0(i64 8, ptr %11) #15
  call void @llvm.lifetime.start.p0(i64 8, ptr %12) #15
  call void @llvm.lifetime.start.p0(i64 1, ptr %13) #15
  store i8 0, ptr %13, align 1
  call void @llvm.lifetime.start.p0(i64 1, ptr %14) #15
  store i8 0, ptr %14, align 1
  call void @llvm.lifetime.start.p0(i64 4, ptr %15) #15
  store i32 10, ptr %15, align 4
  %17 = load ptr, ptr %6, align 8
  %18 = load i32, ptr %10, align 4
  %19 = call i32 @tvb_captured_length_remaining(ptr noundef %17, i32 noundef %18)
  %20 = load i32, ptr %15, align 4
  %21 = icmp slt i32 %19, %20
  br i1 %21, label %22, label %23

22:                                               ; preds = %4
  store i1 false, ptr %5, align 1
  store i32 1, ptr %16, align 4
  br label %228

23:                                               ; preds = %4
  %24 = load ptr, ptr %6, align 8
  %25 = load i32, ptr %10, align 4
  %26 = call i32 @tvb_strneql(ptr noundef %24, i32 noundef %25, ptr noundef @.str.189, i64 noundef 7)
  %27 = icmp ne i32 %26, 0
  br i1 %27, label %28, label %29

28:                                               ; preds = %23
  store i1 false, ptr %5, align 1
  store i32 1, ptr %16, align 4
  br label %228

29:                                               ; preds = %23
  %30 = load i32, ptr %10, align 4
  %31 = add i32 %30, 7
  store i32 %31, ptr %10, align 4
  %32 = call ptr @wmem_file_scope()
  %33 = load ptr, ptr %7, align 8
  %34 = load i32, ptr @proto_pdcp_nr, align 4
  %35 = call ptr @p_get_proto_data(ptr noundef %32, ptr noundef %33, i32 noundef %34, i32 noundef 0)
  store ptr %35, ptr %11, align 8
  %36 = load ptr, ptr %11, align 8
  %37 = icmp eq ptr %36, null
  br i1 %37, label %38, label %211

38:                                               ; preds = %29
  %39 = call ptr @wmem_file_scope()
  %40 = call noalias ptr @wmem_alloc0(ptr noundef %39, i64 noundef 56) #16
  store ptr %40, ptr %11, align 8
  %41 = load ptr, ptr %6, align 8
  %42 = load i32, ptr %10, align 4
  %43 = add i32 %42, 1
  store i32 %43, ptr %10, align 4
  %44 = call zeroext i8 @tvb_get_uint8(ptr noundef %41, i32 noundef %42)
  %45 = zext i8 %44 to i32
  %46 = load ptr, ptr %11, align 8
  %47 = getelementptr inbounds nuw %struct.pdcp_nr_info, ptr %46, i32 0, i32 4
  store i32 %45, ptr %47, align 4
  %48 = load ptr, ptr %11, align 8
  %49 = getelementptr inbounds nuw %struct.pdcp_nr_info, ptr %48, i32 0, i32 4
  %50 = load i32, ptr %49, align 4
  %51 = icmp eq i32 %50, 1
  br i1 %51, label %52, label %55

52:                                               ; preds = %38
  %53 = load ptr, ptr %11, align 8
  %54 = getelementptr inbounds nuw %struct.pdcp_nr_info, ptr %53, i32 0, i32 5
  store i8 12, ptr %54, align 8
  br label %55

55:                                               ; preds = %52, %38
  br label %56

56:                                               ; preds = %188, %173, %55
  %57 = load i8, ptr %13, align 1
  %58 = zext i8 %57 to i32
  %59 = icmp ne i32 %58, 1
  br i1 %59, label %60, label %189

60:                                               ; preds = %56
  %61 = load ptr, ptr %6, align 8
  %62 = load i32, ptr %10, align 4
  %63 = add i32 %62, 1
  store i32 %63, ptr %10, align 4
  %64 = call zeroext i8 @tvb_get_uint8(ptr noundef %61, i32 noundef %62)
  store i8 %64, ptr %13, align 1
  %65 = load i8, ptr %13, align 1
  %66 = zext i8 %65 to i32
  switch i32 %66, label %180 [
    i32 2, label %67
    i32 3, label %75
    i32 4, label %83
    i32 5, label %92
    i32 6, label %100
    i32 7, label %108
    i32 8, label %112
    i32 9, label %121
    i32 10, label %125
    i32 11, label %129
    i32 12, label %139
    i32 13, label %143
    i32 14, label %147
    i32 15, label %156
    i32 16, label %159
    i32 17, label %170
    i32 1, label %173
  ]

67:                                               ; preds = %60
  %68 = load ptr, ptr %6, align 8
  %69 = load i32, ptr %10, align 4
  %70 = call zeroext i8 @tvb_get_uint8(ptr noundef %68, i32 noundef %69)
  %71 = load ptr, ptr %11, align 8
  %72 = getelementptr inbounds nuw %struct.pdcp_nr_info, ptr %71, i32 0, i32 5
  store i8 %70, ptr %72, align 8
  %73 = load i32, ptr %10, align 4
  %74 = add i32 %73, 1
  store i32 %74, ptr %10, align 4
  store i8 1, ptr %14, align 1
  br label %188

75:                                               ; preds = %60
  %76 = load ptr, ptr %6, align 8
  %77 = load i32, ptr %10, align 4
  %78 = call zeroext i8 @tvb_get_uint8(ptr noundef %76, i32 noundef %77)
  %79 = load ptr, ptr %11, align 8
  %80 = getelementptr inbounds nuw %struct.pdcp_nr_info, ptr %79, i32 0, i32 0
  store i8 %78, ptr %80, align 8
  %81 = load i32, ptr %10, align 4
  %82 = add i32 %81, 1
  store i32 %82, ptr %10, align 4
  br label %188

83:                                               ; preds = %60
  %84 = load ptr, ptr %6, align 8
  %85 = load i32, ptr %10, align 4
  %86 = call zeroext i8 @tvb_get_uint8(ptr noundef %84, i32 noundef %85)
  %87 = zext i8 %86 to i32
  %88 = load ptr, ptr %11, align 8
  %89 = getelementptr inbounds nuw %struct.pdcp_nr_info, ptr %88, i32 0, i32 2
  store i32 %87, ptr %89, align 4
  %90 = load i32, ptr %10, align 4
  %91 = add i32 %90, 1
  store i32 %91, ptr %10, align 4
  br label %188

92:                                               ; preds = %60
  %93 = load ptr, ptr %6, align 8
  %94 = load i32, ptr %10, align 4
  %95 = call zeroext i8 @tvb_get_uint8(ptr noundef %93, i32 noundef %94)
  %96 = load ptr, ptr %11, align 8
  %97 = getelementptr inbounds nuw %struct.pdcp_nr_info, ptr %96, i32 0, i32 3
  store i8 %95, ptr %97, align 8
  %98 = load i32, ptr %10, align 4
  %99 = add i32 %98, 1
  store i32 %99, ptr %10, align 4
  br label %188

100:                                              ; preds = %60
  %101 = load ptr, ptr %6, align 8
  %102 = load i32, ptr %10, align 4
  %103 = call zeroext i16 @tvb_get_ntohs(ptr noundef %101, i32 noundef %102)
  %104 = load ptr, ptr %11, align 8
  %105 = getelementptr inbounds nuw %struct.pdcp_nr_info, ptr %104, i32 0, i32 1
  store i16 %103, ptr %105, align 2
  %106 = load i32, ptr %10, align 4
  %107 = add i32 %106, 2
  store i32 %107, ptr %10, align 4
  br label %188

108:                                              ; preds = %60
  %109 = load ptr, ptr %11, align 8
  %110 = getelementptr inbounds nuw %struct.pdcp_nr_info, ptr %109, i32 0, i32 9
  %111 = getelementptr inbounds nuw %struct.rohc_info, ptr %110, i32 0, i32 0
  store i8 1, ptr %111, align 8
  br label %188

112:                                              ; preds = %60
  %113 = load ptr, ptr %6, align 8
  %114 = load i32, ptr %10, align 4
  %115 = call zeroext i8 @tvb_get_uint8(ptr noundef %113, i32 noundef %114)
  %116 = load ptr, ptr %11, align 8
  %117 = getelementptr inbounds nuw %struct.pdcp_nr_info, ptr %116, i32 0, i32 9
  %118 = getelementptr inbounds nuw %struct.rohc_info, ptr %117, i32 0, i32 1
  store i8 %115, ptr %118, align 1
  %119 = load i32, ptr %10, align 4
  %120 = add i32 %119, 1
  store i32 %120, ptr %10, align 4
  br label %188

121:                                              ; preds = %60
  %122 = load ptr, ptr %11, align 8
  %123 = getelementptr inbounds nuw %struct.pdcp_nr_info, ptr %122, i32 0, i32 9
  %124 = getelementptr inbounds nuw %struct.rohc_info, ptr %123, i32 0, i32 2
  store i8 1, ptr %124, align 2
  br label %188

125:                                              ; preds = %60
  %126 = load ptr, ptr %11, align 8
  %127 = getelementptr inbounds nuw %struct.pdcp_nr_info, ptr %126, i32 0, i32 9
  %128 = getelementptr inbounds nuw %struct.rohc_info, ptr %127, i32 0, i32 3
  store i8 1, ptr %128, align 1
  br label %188

129:                                              ; preds = %60
  %130 = load ptr, ptr %6, align 8
  %131 = load i32, ptr %10, align 4
  %132 = call zeroext i8 @tvb_get_uint8(ptr noundef %130, i32 noundef %131)
  %133 = zext i8 %132 to i32
  %134 = load ptr, ptr %11, align 8
  %135 = getelementptr inbounds nuw %struct.pdcp_nr_info, ptr %134, i32 0, i32 9
  %136 = getelementptr inbounds nuw %struct.rohc_info, ptr %135, i32 0, i32 4
  store i32 %133, ptr %136, align 4
  %137 = load i32, ptr %10, align 4
  %138 = add i32 %137, 1
  store i32 %138, ptr %10, align 4
  br label %188

139:                                              ; preds = %60
  %140 = load ptr, ptr %11, align 8
  %141 = getelementptr inbounds nuw %struct.pdcp_nr_info, ptr %140, i32 0, i32 9
  %142 = getelementptr inbounds nuw %struct.rohc_info, ptr %141, i32 0, i32 5
  store i8 1, ptr %142, align 8
  br label %188

143:                                              ; preds = %60
  %144 = load ptr, ptr %11, align 8
  %145 = getelementptr inbounds nuw %struct.pdcp_nr_info, ptr %144, i32 0, i32 9
  %146 = getelementptr inbounds nuw %struct.rohc_info, ptr %145, i32 0, i32 6
  store i8 1, ptr %146, align 1
  br label %188

147:                                              ; preds = %60
  %148 = load ptr, ptr %6, align 8
  %149 = load i32, ptr %10, align 4
  %150 = call zeroext i16 @tvb_get_ntohs(ptr noundef %148, i32 noundef %149)
  %151 = load ptr, ptr %11, align 8
  %152 = getelementptr inbounds nuw %struct.pdcp_nr_info, ptr %151, i32 0, i32 9
  %153 = getelementptr inbounds nuw %struct.rohc_info, ptr %152, i32 0, i32 7
  store i16 %150, ptr %153, align 2
  %154 = load i32, ptr %10, align 4
  %155 = add i32 %154, 2
  store i32 %155, ptr %10, align 4
  br label %188

156:                                              ; preds = %60
  %157 = load ptr, ptr %11, align 8
  %158 = getelementptr inbounds nuw %struct.pdcp_nr_info, ptr %157, i32 0, i32 6
  store i8 1, ptr %158, align 1
  br label %188

159:                                              ; preds = %60
  %160 = load ptr, ptr %6, align 8
  %161 = load i32, ptr %10, align 4
  %162 = call zeroext i8 @tvb_get_uint8(ptr noundef %160, i32 noundef %161)
  %163 = zext i8 %162 to i32
  %164 = and i32 %163, 3
  %165 = trunc i32 %164 to i8
  %166 = load ptr, ptr %11, align 8
  %167 = getelementptr inbounds nuw %struct.pdcp_nr_info, ptr %166, i32 0, i32 8
  store i8 %165, ptr %167, align 1
  %168 = load i32, ptr %10, align 4
  %169 = add i32 %168, 1
  store i32 %169, ptr %10, align 4
  br label %188

170:                                              ; preds = %60
  %171 = load ptr, ptr %11, align 8
  %172 = getelementptr inbounds nuw %struct.pdcp_nr_info, ptr %171, i32 0, i32 7
  store i8 1, ptr %172, align 2
  br label %188

173:                                              ; preds = %60
  %174 = load ptr, ptr %6, align 8
  %175 = load i32, ptr %10, align 4
  %176 = call i32 @tvb_reported_length_remaining(ptr noundef %174, i32 noundef %175)
  %177 = trunc i32 %176 to i16
  %178 = load ptr, ptr %11, align 8
  %179 = getelementptr inbounds nuw %struct.pdcp_nr_info, ptr %178, i32 0, i32 11
  store i16 %177, ptr %179, align 2
  br label %56, !llvm.loop !12

180:                                              ; preds = %60
  %181 = load ptr, ptr %8, align 8
  %182 = load ptr, ptr %7, align 8
  %183 = load ptr, ptr %6, align 8
  %184 = load i32, ptr %10, align 4
  %185 = sub i32 %184, 1
  call void @report_heur_error(ptr noundef %181, ptr noundef %182, ptr noundef @ei_pdcp_nr_unknown_udp_framing_tag, ptr noundef %183, i32 noundef %185, i32 noundef 1)
  %186 = call ptr @wmem_file_scope()
  %187 = load ptr, ptr %11, align 8
  call void @wmem_free(ptr noundef %186, ptr noundef %187)
  store i1 true, ptr %5, align 1
  store i32 1, ptr %16, align 4
  br label %228

188:                                              ; preds = %170, %159, %156, %147, %143, %139, %129, %125, %121, %112, %108, %100, %92, %83, %75, %67
  br label %56, !llvm.loop !12

189:                                              ; preds = %56
  %190 = load ptr, ptr %11, align 8
  %191 = getelementptr inbounds nuw %struct.pdcp_nr_info, ptr %190, i32 0, i32 4
  %192 = load i32, ptr %191, align 4
  %193 = icmp eq i32 %192, 2
  br i1 %193, label %194, label %206

194:                                              ; preds = %189
  %195 = load i8, ptr %14, align 1, !range !8, !noundef !9
  %196 = trunc i8 %195 to i1
  %197 = zext i1 %196 to i32
  %198 = icmp eq i32 %197, 0
  br i1 %198, label %199, label %206

199:                                              ; preds = %194
  %200 = load ptr, ptr %8, align 8
  %201 = load ptr, ptr %7, align 8
  %202 = load ptr, ptr %6, align 8
  %203 = load i32, ptr %10, align 4
  call void @report_heur_error(ptr noundef %200, ptr noundef %201, ptr noundef @ei_pdcp_nr_missing_udp_framing_tag, ptr noundef %202, i32 noundef 0, i32 noundef %203)
  %204 = call ptr @wmem_file_scope()
  %205 = load ptr, ptr %11, align 8
  call void @wmem_free(ptr noundef %204, ptr noundef %205)
  store i1 true, ptr %5, align 1
  store i32 1, ptr %16, align 4
  br label %228

206:                                              ; preds = %194, %189
  %207 = call ptr @wmem_file_scope()
  %208 = load ptr, ptr %7, align 8
  %209 = load i32, ptr @proto_pdcp_nr, align 4
  %210 = load ptr, ptr %11, align 8
  call void @p_add_proto_data(ptr noundef %207, ptr noundef %208, i32 noundef %209, i32 noundef 0, ptr noundef %210)
  br label %219

211:                                              ; preds = %29
  %212 = load ptr, ptr %6, align 8
  %213 = call i32 @tvb_reported_length(ptr noundef %212)
  %214 = load ptr, ptr %11, align 8
  %215 = getelementptr inbounds nuw %struct.pdcp_nr_info, ptr %214, i32 0, i32 11
  %216 = load i16, ptr %215, align 2
  %217 = zext i16 %216 to i32
  %218 = sub i32 %213, %217
  store i32 %218, ptr %10, align 4
  br label %219

219:                                              ; preds = %211, %206
  %220 = load ptr, ptr %6, align 8
  %221 = load i32, ptr %10, align 4
  %222 = call ptr @tvb_new_subset_remaining(ptr noundef %220, i32 noundef %221)
  store ptr %222, ptr %12, align 8
  %223 = load ptr, ptr %12, align 8
  %224 = load ptr, ptr %7, align 8
  %225 = load ptr, ptr %8, align 8
  %226 = load ptr, ptr %9, align 8
  %227 = call i32 @dissect_pdcp_nr(ptr noundef %223, ptr noundef %224, ptr noundef %225, ptr noundef %226)
  store i1 true, ptr %5, align 1
  store i32 1, ptr %16, align 4
  br label %228

228:                                              ; preds = %219, %199, %180, %28, %22
  call void @llvm.lifetime.end.p0(i64 4, ptr %15) #15
  call void @llvm.lifetime.end.p0(i64 1, ptr %14) #15
  call void @llvm.lifetime.end.p0(i64 1, ptr %13) #15
  call void @llvm.lifetime.end.p0(i64 8, ptr %12) #15
  call void @llvm.lifetime.end.p0(i64 8, ptr %11) #15
  call void @llvm.lifetime.end.p0(i64 4, ptr %10) #15
  %229 = load i1, ptr %5, align 1
  ret i1 %229
}