; Function Attrs: null_pointer_is_valid sspstrong uwtable
define internal noundef zeroext i1 @dissect_pdcp_nr_heur(ptr noundef %0, ptr noundef %1, ptr noundef %2, ptr noundef %3) #0 {
  %5 = tail call i32 @tvb_captured_length_remaining(ptr noundef %0, i32 noundef 0)
  %6 = icmp slt i32 %5, 10
  br i1 %6, label %90, label %7

7:                                                ; preds = %4
  %8 = tail call i32 @tvb_strneql(ptr noundef %0, i32 noundef 0, ptr noundef nonnull @.str.189, i64 noundef 7)
  %.not = icmp eq i32 %8, 0
  br i1 %.not, label %9, label %90

9:                                                ; preds = %7
  %10 = tail call ptr @wmem_file_scope()
  %11 = load i32, ptr @proto_pdcp_nr, align 4
  %12 = tail call ptr @p_get_proto_data(ptr noundef %10, ptr noundef %1, i32 noundef %11, i32 noundef 0)
  %13 = icmp eq ptr %12, null
  br i1 %13, label %14, label %81

14:                                               ; preds = %9
  %15 = tail call ptr @wmem_file_scope()
  %16 = tail call noalias dereferenceable_or_null(56) ptr @wmem_alloc0(ptr noundef %15, i64 noundef 56) #16
  %17 = tail call zeroext i8 @tvb_get_uint8(ptr noundef %0, i32 noundef 7)
  %18 = zext i8 %17 to i32
  %19 = getelementptr inbounds nuw i8, ptr %16, i64 12
  store i32 %18, ptr %19, align 4
  %20 = icmp eq i8 %17, 1
  br i1 %20, label %21, label %.split230

21:                                               ; preds = %14
  %22 = getelementptr inbounds nuw i8, ptr %16, i64 16
  store i8 12, ptr %22, align 8
  br label %.split230

.split230:                                        ; preds = %14, %21
  %23 = getelementptr inbounds nuw i8, ptr %16, i64 18
  %24 = getelementptr inbounds nuw i8, ptr %16, i64 19
  %25 = getelementptr inbounds nuw i8, ptr %16, i64 17
  %26 = getelementptr inbounds nuw i8, ptr %16, i64 34
  %27 = getelementptr inbounds nuw i8, ptr %16, i64 33
  %28 = getelementptr inbounds nuw i8, ptr %16, i64 32
  %29 = getelementptr inbounds nuw i8, ptr %16, i64 28
  %30 = getelementptr inbounds nuw i8, ptr %16, i64 27
  %31 = getelementptr inbounds nuw i8, ptr %16, i64 26
  %32 = getelementptr inbounds nuw i8, ptr %16, i64 25
  %33 = getelementptr inbounds nuw i8, ptr %16, i64 24
  %34 = getelementptr inbounds nuw i8, ptr %16, i64 2
  %35 = getelementptr inbounds nuw i8, ptr %16, i64 8
  %36 = getelementptr inbounds nuw i8, ptr %16, i64 4
  %37 = getelementptr inbounds nuw i8, ptr %16, i64 16
  br label %.lr.ph

.lr.ph:                                           ; preds = %.lr.ph.backedge, %.split230
  %.085.ph232 = phi i8 [ 0, %.split230 ], [ %.085.ph232.be, %.lr.ph.backedge ]
  %.087.ph231 = phi i32 [ 8, %.split230 ], [ %.087.ph231.be, %.lr.ph.backedge ]
  %38 = add i32 %.087.ph231, 1
  %39 = tail call zeroext i8 @tvb_get_uint8(ptr noundef %0, i32 noundef %.087.ph231)
  switch i8 %39, label %.split.us [
    i8 2, label %.split149.us
    i8 3, label %.split154.us
    i8 4, label %.split159.us
    i8 5, label %.split164.us
    i8 6, label %.split169.us
    i8 7, label %.split174.us
    i8 8, label %.split178.us
    i8 9, label %.split183.us
    i8 10, label %.split187.us
    i8 11, label %.split191.us
    i8 12, label %.split196.us
    i8 13, label %.split200.us
    i8 14, label %.split204.us
    i8 15, label %.split209.us
    i8 16, label %.split213.us
    i8 17, label %.split218.us
    i8 1, label %.outer._crit_edge
  ]

.split149.us:                                     ; preds = %.lr.ph
  %40 = tail call zeroext i8 @tvb_get_uint8(ptr noundef %0, i32 noundef %38)
  store i8 %40, ptr %37, align 8
  %41 = add i32 %.087.ph231, 2
  br label %.lr.ph.backedge

.split154.us:                                     ; preds = %.lr.ph
  %42 = tail call zeroext i8 @tvb_get_uint8(ptr noundef %0, i32 noundef %38)
  store i8 %42, ptr %16, align 8
  %43 = add i32 %.087.ph231, 2
  br label %.lr.ph.backedge

.split159.us:                                     ; preds = %.lr.ph
  %44 = tail call zeroext i8 @tvb_get_uint8(ptr noundef %0, i32 noundef %38)
  %45 = zext i8 %44 to i32
  store i32 %45, ptr %36, align 4
  %46 = add i32 %.087.ph231, 2
  br label %.lr.ph.backedge

.split164.us:                                     ; preds = %.lr.ph
  %47 = tail call zeroext i8 @tvb_get_uint8(ptr noundef %0, i32 noundef %38)
  store i8 %47, ptr %35, align 8
  %48 = add i32 %.087.ph231, 2
  br label %.lr.ph.backedge

.split169.us:                                     ; preds = %.lr.ph
  %49 = tail call zeroext i16 @tvb_get_ntohs(ptr noundef %0, i32 noundef %38)
  store i16 %49, ptr %34, align 2
  %50 = add i32 %.087.ph231, 3
  br label %.lr.ph.backedge

.split174.us:                                     ; preds = %.lr.ph
  store i8 1, ptr %33, align 8
  br label %.lr.ph.backedge

.split178.us:                                     ; preds = %.lr.ph
  %51 = tail call zeroext i8 @tvb_get_uint8(ptr noundef %0, i32 noundef %38)
  store i8 %51, ptr %32, align 1
  %52 = add i32 %.087.ph231, 2
  br label %.lr.ph.backedge

.split183.us:                                     ; preds = %.lr.ph
  store i8 1, ptr %31, align 2
  br label %.lr.ph.backedge

.split187.us:                                     ; preds = %.lr.ph
  store i8 1, ptr %30, align 1
  br label %.lr.ph.backedge

.split191.us:                                     ; preds = %.lr.ph
  %53 = tail call zeroext i8 @tvb_get_uint8(ptr noundef %0, i32 noundef %38)
  %54 = zext i8 %53 to i32
  store i32 %54, ptr %29, align 4
  %55 = add i32 %.087.ph231, 2
  br label %.lr.ph.backedge

.split196.us:                                     ; preds = %.lr.ph
  store i8 1, ptr %28, align 8
  br label %.lr.ph.backedge

.split200.us:                                     ; preds = %.lr.ph
  store i8 1, ptr %27, align 1
  br label %.lr.ph.backedge

.split204.us:                                     ; preds = %.lr.ph
  %56 = tail call zeroext i16 @tvb_get_ntohs(ptr noundef %0, i32 noundef %38)
  store i16 %56, ptr %26, align 2
  %57 = add i32 %.087.ph231, 3
  br label %.lr.ph.backedge

.split209.us:                                     ; preds = %.lr.ph
  store i8 1, ptr %25, align 1
  br label %.lr.ph.backedge

.split213.us:                                     ; preds = %.lr.ph
  %58 = tail call zeroext i8 @tvb_get_uint8(ptr noundef %0, i32 noundef %38)
  %59 = and i8 %58, 3
  store i8 %59, ptr %24, align 1
  %60 = add i32 %.087.ph231, 2
  br label %.lr.ph.backedge

.split218.us:                                     ; preds = %.lr.ph
  store i8 1, ptr %23, align 2
  br label %.lr.ph.backedge

.lr.ph.backedge:                                  ; preds = %.split218.us, %.split213.us, %.split209.us, %.split204.us, %.split200.us, %.split196.us, %.split191.us, %.split187.us, %.split183.us, %.split178.us, %.split174.us, %.split169.us, %.split164.us, %.split159.us, %.split154.us, %.split149.us
  %.085.ph232.be = phi i8 [ %.085.ph232, %.split218.us ], [ %.085.ph232, %.split213.us ], [ %.085.ph232, %.split209.us ], [ %.085.ph232, %.split204.us ], [ %.085.ph232, %.split200.us ], [ %.085.ph232, %.split196.us ], [ %.085.ph232, %.split191.us ], [ %.085.ph232, %.split187.us ], [ %.085.ph232, %.split183.us ], [ %.085.ph232, %.split178.us ], [ %.085.ph232, %.split174.us ], [ %.085.ph232, %.split169.us ], [ %.085.ph232, %.split164.us ], [ %.085.ph232, %.split159.us ], [ %.085.ph232, %.split154.us ], [ 1, %.split149.us ]
  %.087.ph231.be = phi i32 [ %38, %.split218.us ], [ %60, %.split213.us ], [ %38, %.split209.us ], [ %57, %.split204.us ], [ %38, %.split200.us ], [ %38, %.split196.us ], [ %55, %.split191.us ], [ %38, %.split187.us ], [ %38, %.split183.us ], [ %52, %.split178.us ], [ %38, %.split174.us ], [ %50, %.split169.us ], [ %48, %.split164.us ], [ %46, %.split159.us ], [ %43, %.split154.us ], [ %41, %.split149.us ]
  br label %.lr.ph, !llvm.loop !15

.split.us:                                        ; preds = %.lr.ph
  tail call fastcc void @report_heur_error(ptr noundef %2, ptr noundef %1, ptr noundef nonnull @ei_pdcp_nr_unknown_udp_framing_tag, ptr noundef %0, i32 noundef %.087.ph231, i32 noundef 1)
  %61 = tail call ptr @wmem_file_scope()
  tail call void @wmem_free(ptr noundef %61, ptr noundef %16)
  br label %90

.outer._crit_edge:                                ; preds = %.lr.ph
  %62 = getelementptr inbounds nuw i8, ptr %16, i64 50
  %63 = tail call i32 @tvb_reported_length_remaining(ptr noundef %0, i32 noundef %38)
  %64 = trunc i32 %63 to i16
  store i16 %64, ptr %62, align 2
  %65 = load i32, ptr %19, align 4
  %66 = icmp eq i32 %65, 2
  %67 = icmp eq i8 %.085.ph232, 0
  %or.cond = select i1 %66, i1 %67, i1 false
  br i1 %or.cond, label %68, label %78

68:                                               ; preds = %.outer._crit_edge
  %69 = getelementptr inbounds nuw i8, ptr %1, i64 8
  %70 = load ptr, ptr %69, align 8
  tail call void @col_set_str(ptr noundef %70, i32 noundef 35, ptr noundef nonnull @.str.188)
  %71 = load ptr, ptr %69, align 8
  tail call void @col_clear(ptr noundef %71, i32 noundef 25)
  %72 = load i32, ptr @proto_pdcp_nr, align 4
  %73 = tail call ptr @proto_tree_add_item(ptr noundef %2, i32 noundef %72, ptr noundef %0, i32 noundef 0, i32 noundef -1, i32 noundef 0)
  %74 = load i32, ptr @ett_pdcp, align 4
  %75 = tail call ptr @proto_item_add_subtree(ptr noundef %73, i32 noundef %74)
  %76 = tail call ptr @proto_tree_add_expert(ptr noundef %75, ptr noundef %1, ptr noundef nonnull @ei_pdcp_nr_missing_udp_framing_tag, ptr noundef %0, i32 noundef 0, i32 noundef %38)
  %77 = tail call ptr @wmem_file_scope()
  tail call void @wmem_free(ptr noundef %77, ptr noundef %16)
  br label %90

78:                                               ; preds = %.outer._crit_edge
  %79 = tail call ptr @wmem_file_scope()
  %80 = load i32, ptr @proto_pdcp_nr, align 4
  tail call void @p_add_proto_data(ptr noundef %79, ptr noundef %1, i32 noundef %80, i32 noundef 0, ptr noundef %16)
  br label %87

81:                                               ; preds = %9
  %82 = tail call i32 @tvb_reported_length(ptr noundef %0)
  %83 = getelementptr inbounds nuw i8, ptr %12, i64 50
  %84 = load i16, ptr %83, align 2
  %85 = zext i16 %84 to i32
  %86 = sub i32 %82, %85
  br label %87

87:                                               ; preds = %81, %78
  %.2 = phi i32 [ %38, %78 ], [ %86, %81 ]
  %88 = tail call ptr @tvb_new_subset_remaining(ptr noundef %0, i32 noundef %.2)
  %89 = tail call i32 @dissect_pdcp_nr(ptr noundef %88, ptr noundef %1, ptr noundef %2, ptr noundef %3)
  br label %90

90:                                               ; preds = %7, %4, %87, %68, %.split.us
  %.0 = phi i1 [ true, %.split.us ], [ true, %68 ], [ true, %87 ], [ false, %4 ], [ false, %7 ]
  ret i1 %.0
}